target datalayout = "e-m:e-p270:32:32-p271:32:32-p272:64:64-i64:64-i128:128-f80:128-n8:16:32:64-S128"
target triple = "x86_64-pc-linux-gnu"

%"class.icu_77::Normalizer" = type <{ %"class.icu_77::UObject", ptr, ptr, i32, i32, ptr, i32, i32, %"class.icu_77::UnicodeString", i32, [4 x i8] }>
%"class.icu_77::UObject" = type { ptr }
%"class.icu_77::UnicodeString" = type { %"class.icu_77::Replaceable", %"union.icu_77::UnicodeString::StackBufferOrFields" }
%"class.icu_77::Replaceable" = type { %"class.icu_77::UObject" }
%"union.icu_77::UnicodeString::StackBufferOrFields" = type { %struct.anon.0, [32 x i8] }
%struct.anon.0 = type { i16, i32, i32, ptr }

; Function Attrs: mustprogress uwtable
define noundef i32 @_ZN6icu_7710Normalizer8previousEv(ptr noundef nonnull align 8 dereferenceable(116) %0) #1 align 2 {
  %2 = alloca i32, align 4
  %3 = alloca ptr, align 8
  %4 = alloca i32, align 4
  store ptr %0, ptr %3, align 8, !tbaa !3
  %5 = load ptr, ptr %3, align 8
  %6 = getelementptr inbounds nuw %"class.icu_77::Normalizer", ptr %5, i32 0, i32 9
  %7 = load i32, ptr %6, align 8, !tbaa !29
  %8 = icmp sgt i32 %7, 0
  br i1 %8, label %12, label %9

9:                                                ; preds = %1
  %10 = call noundef signext i8 @_ZN6icu_7710Normalizer17previousNormalizeEv(ptr noundef nonnull align 8 dereferenceable(116) %5)
  %11 = icmp ne i8 %10, 0
  br i1 %11, label %12, label %25

12:                                               ; preds = %9, %1
  call void @llvm.lifetime.start.p0(i64 4, ptr %4) #9
  %13 = getelementptr inbounds nuw %"class.icu_77::Normalizer", ptr %5, i32 0, i32 8
  %14 = getelementptr inbounds nuw %"class.icu_77::Normalizer", ptr %5, i32 0, i32 9
  %15 = load i32, ptr %14, align 8, !tbaa !29
  %16 = sub nsw i32 %15, 1
  %17 = call noundef i32 @_ZNK6icu_7713UnicodeString8char32AtEi(ptr noundef nonnull align 8 dereferenceable(64) %13, i32 noundef %16)
  store i32 %17, ptr %4, align 4, !tbaa !37
  %18 = load i32, ptr %4, align 4, !tbaa !37
  %19 = icmp ule i32 %18, 65535
  %20 = select i1 %19, i32 1, i32 2
  %21 = getelementptr inbounds nuw %"class.icu_77::Normalizer", ptr %5, i32 0, i32 9
  %22 = load i32, ptr %21, align 8, !tbaa !29
  %23 = sub nsw i32 %22, %20
  store i32 %23, ptr %21, align 8, !tbaa !29
  %24 = load i32, ptr %4, align 4, !tbaa !37
  store i32 %24, ptr %2, align 4
  call void @llvm.lifetime.end.p0(i64 4, ptr %4) #9
  br label %26

25:                                               ; preds = %9
  store i32 65535, ptr %2, align 4
  br label %26

26:                                               ; preds = %25, %12
  %27 = load i32, ptr %2, align 4
  ret i32 %27
}