; Function Attrs: mustprogress uwtable
define noundef i32 @_ZN6icu_7710Normalizer8previousEv(ptr noundef nonnull align 8 dereferenceable(116) %0) local_unnamed_addr #1 align 2 {
  %2 = getelementptr inbounds nuw i8, ptr %0, i64 112
  %3 = load i32, ptr %2, align 8, !tbaa !23
  %4 = icmp sgt i32 %3, 0
  br i1 %4, label %7, label %5

5:                                                ; preds = %1
  %6 = tail call noundef signext i8 @_ZN6icu_7710Normalizer17previousNormalizeEv(ptr noundef nonnull align 8 dereferenceable(116) %0)
  %.not = icmp eq i8 %6, 0
  br i1 %.not, label %15, label %._crit_edge

._crit_edge:                                      ; preds = %5
  %.pre = load i32, ptr %2, align 8, !tbaa !23
  br label %7

7:                                                ; preds = %._crit_edge, %1
  %8 = phi i32 [ %.pre, %._crit_edge ], [ %3, %1 ]
  %9 = getelementptr inbounds nuw i8, ptr %0, i64 48
  %10 = add nsw i32 %8, -1
  %11 = tail call noundef i32 @_ZNK6icu_7713UnicodeString8char32AtEi(ptr noundef nonnull align 8 dereferenceable(64) %9, i32 noundef %10)
  %12 = icmp ult i32 %11, 65536
  %.neg = select i1 %12, i32 -1, i32 -2
  %13 = load i32, ptr %2, align 8, !tbaa !23
  %14 = add i32 %.neg, %13
  store i32 %14, ptr %2, align 8, !tbaa !23
  br label %15

15:                                               ; preds = %5, %7
  %.0 = phi i32 [ %11, %7 ], [ 65535, %5 ]
  ret i32 %.0
}